target datalayout = "e-m:e-p270:32:32-p271:32:32-p272:64:64-i64:64-i128:128-f80:128-n8:16:32:64-S128"
target triple = "x86_64-pc-linux-gnu"

%"class.folly::IPAddressV6" = type <{ %"union.folly::IPAddressV6::AddressStorage", i16, [2 x i8] }>
%"union.folly::IPAddressV6::AddressStorage" = type { %struct.in6_addr }
%struct.in6_addr = type { %union.anon }
%union.anon = type { [4 x i32] }
%struct.sockaddr_in6 = type { i16, i16, i32, %struct.in6_addr, i32 }

; Function Attrs: noinline noreturn nounwind uwtable
define linkonce_odr hidden void @__clang_call_terminate(ptr noundef %0) #5 comdat {
  %2 = call ptr @__cxa_begin_catch(ptr %0) #13
  call void @_ZSt9terminatev() #34
  unreachable
}

; Function Attrs: mustprogress nounwind uwtable
define linkonce_odr void @_ZN5folly11IPAddressV614AddressStorageC2ERK8in6_addr(ptr noundef nonnull align 4 dereferenceable(16) %0, ptr noundef nonnull align 4 dereferenceable(16) %1) unnamed_addr #3 comdat align 2 {
  %3 = alloca ptr, align 8
  %4 = alloca ptr, align 8
  store ptr %0, ptr %3, align 8, !tbaa !105
  store ptr %1, ptr %4, align 8, !tbaa !151
  %5 = load ptr, ptr %3, align 8
  %6 = load ptr, ptr %4, align 8, !tbaa !151
  call void @llvm.memcpy.p0.p0.i64(ptr align 4 %5, ptr align 4 %6, i64 16, i1 false), !tbaa.struct !153
  ret void
}

; Function Attrs: mustprogress nounwind uwtable
define void @_ZN5folly11IPAddressV6C2ERK12sockaddr_in6(ptr noundef nonnull align 4 dereferenceable(18) %0, ptr noundef nonnull align 4 dereferenceable(28) %1) unnamed_addr #3 align 2 personality ptr @__gxx_personality_v0 {
  %3 = alloca ptr, align 8
  %4 = alloca ptr, align 8
  store ptr %0, ptr %3, align 8, !tbaa !7
  store ptr %1, ptr %4, align 8, !tbaa !96
  %5 = load ptr, ptr %3, align 8
  %6 = getelementptr inbounds nuw %"class.folly::IPAddressV6", ptr %5, i32 0, i32 0
  %7 = load ptr, ptr %4, align 8, !tbaa !96
  %8 = getelementptr inbounds nuw %struct.sockaddr_in6, ptr %7, i32 0, i32 3
  invoke void @_ZN5folly11IPAddressV614AddressStorageC2ERK8in6_addr(ptr noundef nonnull align 4 dereferenceable(16) %6, ptr noundef nonnull align 4 dereferenceable(16) %8)
          to label %9 unwind label %15

9:                                                ; preds = %2
  %10 = getelementptr inbounds nuw %"class.folly::IPAddressV6", ptr %5, i32 0, i32 1
  %11 = load ptr, ptr %4, align 8, !tbaa !96
  %12 = getelementptr inbounds nuw %struct.sockaddr_in6, ptr %11, i32 0, i32 4
  %13 = load i32, ptr %12, align 4, !tbaa !154
  %14 = trunc i32 %13 to i16
  store i16 %14, ptr %10, align 4, !tbaa !103
  ret void

15:                                               ; preds = %2
  %16 = landingpad { ptr, i32 }
          catch ptr null
  %17 = extractvalue { ptr, i32 } %16, 0
  call void @__clang_call_terminate(ptr %17) #34
  unreachable
}