; Function Attrs: mustprogress nofree norecurse nosync nounwind willreturn memory(argmem: readwrite) uwtable
define void @_ZN5folly11IPAddressV6C2ERK12sockaddr_in6(ptr noundef nonnull writeonly align 4 captures(none) dereferenceable(18) initializes((0, 18)) %0, ptr noundef nonnull readonly align 4 captures(none) dereferenceable(28) %1) unnamed_addr #27 align 2 personality ptr @__gxx_personality_v0 {
  %3 = getelementptr inbounds nuw i8, ptr %1, i64 8
  tail call void @llvm.memcpy.p0.p0.i64(ptr noundef nonnull align 4 dereferenceable(16) %0, ptr noundef nonnull align 4 dereferenceable(16) %3, i64 16, i1 false), !tbaa.struct !65
  %4 = getelementptr inbounds nuw i8, ptr %0, i64 16
  %5 = getelementptr inbounds nuw i8, ptr %1, i64 24
  %6 = load i32, ptr %5, align 4, !tbaa !66
  %7 = trunc i32 %6 to i16
  store i16 %7, ptr %4, align 4, !tbaa !31
  ret void
}